target datalayout = "e-m:e-p270:32:32-p271:32:32-p272:64:64-i64:64-i128:128-f80:128-n8:16:32:64-S128"
target triple = "x86_64-pc-linux-gnu"

%struct.wtap_dumper = type { ptr, i32, i32, i32, i32, i8, i64, ptr, ptr, ptr, ptr, ptr, ptr, ptr, ptr, ptr, ptr, ptr, ptr, ptr, i32, i32, i32 }

; Function Attrs: null_pointer_is_valid sspstrong uwtable
define zeroext i1 @wtap_dump_file_write(ptr noundef %0, ptr noundef %1, i64 noundef %2, ptr noundef %3) #0 {
  %5 = alloca i1, align 1
  %6 = alloca ptr, align 8
  %7 = alloca ptr, align 8
  %8 = alloca i64, align 8
  %9 = alloca ptr, align 8
  %10 = alloca i64, align 8
  %11 = alloca i32, align 4
  store ptr %0, ptr %6, align 8
  store ptr %1, ptr %7, align 8
  store i64 %2, ptr %8, align 8
  store ptr %3, ptr %9, align 8
  call void @llvm.lifetime.start.p0(i64 8, ptr %10) #12
  %12 = load ptr, ptr %6, align 8
  %13 = getelementptr inbounds nuw %struct.wtap_dumper, ptr %12, i32 0, i32 4
  %14 = load i32, ptr %13, align 4
  switch i32 %14, label %49 [
    i32 1, label %15
    i32 3, label %33
  ]

15:                                               ; preds = %4
  %16 = load ptr, ptr %6, align 8
  %17 = getelementptr inbounds nuw %struct.wtap_dumper, ptr %16, i32 0, i32 0
  %18 = load ptr, ptr %17, align 8
  %19 = load ptr, ptr %7, align 8
  %20 = load i64, ptr %8, align 8
  %21 = trunc i64 %20 to i32
  %22 = call i32 @gzwfile_write(ptr noundef %18, ptr noundef %19, i32 noundef %21)
  %23 = zext i32 %22 to i64
  store i64 %23, ptr %10, align 8
  %24 = load i64, ptr %10, align 8
  %25 = icmp eq i64 %24, 0
  br i1 %25, label %26, label %32

26:                                               ; preds = %15
  %27 = load ptr, ptr %6, align 8
  %28 = getelementptr inbounds nuw %struct.wtap_dumper, ptr %27, i32 0, i32 0
  %29 = load ptr, ptr %28, align 8
  %30 = call i32 @gzwfile_geterr(ptr noundef %29)
  %31 = load ptr, ptr %9, align 8
  store i32 %30, ptr %31, align 4
  store i1 false, ptr %5, align 1
  store i32 1, ptr %11, align 4
  br label %80

32:                                               ; preds = %15
  br label %74

33:                                               ; preds = %4
  %34 = load ptr, ptr %6, align 8
  %35 = getelementptr inbounds nuw %struct.wtap_dumper, ptr %34, i32 0, i32 0
  %36 = load ptr, ptr %35, align 8
  %37 = load ptr, ptr %7, align 8
  %38 = load i64, ptr %8, align 8
  %39 = call i64 @lz4wfile_write(ptr noundef %36, ptr noundef %37, i64 noundef %38)
  store i64 %39, ptr %10, align 8
  %40 = load i64, ptr %10, align 8
  %41 = icmp eq i64 %40, 0
  br i1 %41, label %42, label %48

42:                                               ; preds = %33
  %43 = load ptr, ptr %6, align 8
  %44 = getelementptr inbounds nuw %struct.wtap_dumper, ptr %43, i32 0, i32 0
  %45 = load ptr, ptr %44, align 8
  %46 = call i32 @lz4wfile_geterr(ptr noundef %45)
  %47 = load ptr, ptr %9, align 8
  store i32 %46, ptr %47, align 4
  store i1 false, ptr %5, align 1
  store i32 1, ptr %11, align 4
  br label %80

48:                                               ; preds = %33
  br label %74

49:                                               ; preds = %4
  %50 = call ptr @__errno_location() #15
  store i32 -10, ptr %50, align 4
  %51 = load ptr, ptr %7, align 8
  %52 = load i64, ptr %8, align 8
  %53 = load ptr, ptr %6, align 8
  %54 = getelementptr inbounds nuw %struct.wtap_dumper, ptr %53, i32 0, i32 0
  %55 = load ptr, ptr %54, align 8
  %56 = call i64 @fwrite(ptr noundef %51, i64 noundef 1, i64 noundef %52, ptr noundef %55)
  store i64 %56, ptr %10, align 8
  %57 = load i64, ptr %10, align 8
  %58 = load i64, ptr %8, align 8
  %59 = icmp ne i64 %57, %58
  br i1 %59, label %60, label %73

60:                                               ; preds = %49
  %61 = load ptr, ptr %6, align 8
  %62 = getelementptr inbounds nuw %struct.wtap_dumper, ptr %61, i32 0, i32 0
  %63 = load ptr, ptr %62, align 8
  %64 = call i32 @ferror(ptr noundef %63) #12
  %65 = icmp ne i32 %64, 0
  br i1 %65, label %66, label %70

66:                                               ; preds = %60
  %67 = call ptr @__errno_location() #15
  %68 = load i32, ptr %67, align 4
  %69 = load ptr, ptr %9, align 8
  store i32 %68, ptr %69, align 4
  br label %72

70:                                               ; preds = %60
  %71 = load ptr, ptr %9, align 8
  store i32 -14, ptr %71, align 4
  br label %72

72:                                               ; preds = %70, %66
  store i1 false, ptr %5, align 1
  store i32 1, ptr %11, align 4
  br label %80

73:                                               ; preds = %49
  br label %74

74:                                               ; preds = %73, %48, %32
  %75 = load i64, ptr %8, align 8
  %76 = load ptr, ptr %6, align 8
  %77 = getelementptr inbounds nuw %struct.wtap_dumper, ptr %76, i32 0, i32 6
  %78 = load i64, ptr %77, align 8
  %79 = add i64 %78, %75
  store i64 %79, ptr %77, align 8
  store i1 true, ptr %5, align 1
  store i32 1, ptr %11, align 4
  br label %80

80:                                               ; preds = %74, %72, %42, %26
  call void @llvm.lifetime.end.p0(i64 8, ptr %10) #12
  %81 = load i1, ptr %5, align 1
  ret i1 %81
}