; Function Attrs: null_pointer_is_valid sspstrong uwtable
define noundef zeroext i1 @wtap_dump_file_write(ptr noundef captures(none) %0, ptr noundef %1, i64 noundef %2, ptr noundef writeonly captures(none) %3) local_unnamed_addr #0 {
  %5 = getelementptr inbounds nuw i8, ptr %0, i64 20
  %6 = load i32, ptr %5, align 4
  switch i32 %6, label %22 [
    i32 1, label %7
    i32 3, label %15
  ]

7:                                                ; preds = %4
  %8 = load ptr, ptr %0, align 8
  %9 = trunc i64 %2 to i32
  %10 = tail call i32 @gzwfile_write(ptr noundef %8, ptr noundef %1, i32 noundef %9)
  %11 = icmp eq i32 %10, 0
  br i1 %11, label %12, label %32

12:                                               ; preds = %7
  %13 = load ptr, ptr %0, align 8
  %14 = tail call i32 @gzwfile_geterr(ptr noundef %13)
  store i32 %14, ptr %3, align 4
  br label %36

15:                                               ; preds = %4
  %16 = load ptr, ptr %0, align 8
  %17 = tail call i64 @lz4wfile_write(ptr noundef %16, ptr noundef %1, i64 noundef %2)
  %18 = icmp eq i64 %17, 0
  br i1 %18, label %19, label %32

19:                                               ; preds = %15
  %20 = load ptr, ptr %0, align 8
  %21 = tail call i32 @lz4wfile_geterr(ptr noundef %20)
  store i32 %21, ptr %3, align 4
  br label %36

22:                                               ; preds = %4
  %23 = tail call ptr @__errno_location() #25
  store i32 -10, ptr %23, align 4
  %24 = load ptr, ptr %0, align 8
  %25 = tail call i64 @fwrite(ptr noundef %1, i64 noundef 1, i64 noundef %2, ptr noundef %24)
  %.not = icmp eq i64 %25, %2
  br i1 %.not, label %32, label %26

26:                                               ; preds = %22
  %27 = load ptr, ptr %0, align 8
  %28 = tail call i32 @ferror(ptr noundef %27) #24
  %.not23 = icmp eq i32 %28, 0
  br i1 %.not23, label %31, label %29

29:                                               ; preds = %26
  %30 = load i32, ptr %23, align 4
  br label %31

31:                                               ; preds = %26, %29
  %storemerge = phi i32 [ %30, %29 ], [ -14, %26 ]
  store i32 %storemerge, ptr %3, align 4
  br label %36

32:                                               ; preds = %22, %15, %7
  %33 = getelementptr inbounds nuw i8, ptr %0, i64 32
  %34 = load i64, ptr %33, align 8
  %35 = add i64 %34, %2
  store i64 %35, ptr %33, align 8
  br label %36

36:                                               ; preds = %32, %31, %19, %12
  %.0 = phi i1 [ false, %31 ], [ true, %32 ], [ false, %19 ], [ false, %12 ]
  ret i1 %.0
}